target datalayout = "e-m:e-p270:32:32-p271:32:32-p272:64:64-i64:64-i128:128-f80:128-n8:16:32:64-S128"
target triple = "x86_64-pc-linux-gnu"

%struct.RelMapFile = type { i32, i32, [64 x %struct.RelMapping], i32 }
%struct.RelMapping = type { i32, i32 }
%struct.SerializedActiveRelMaps = type { %struct.RelMapFile, %struct.RelMapFile }

@active_shared_updates = internal global %struct.RelMapFile zeroinitializer, align 4
@active_local_updates = internal global %struct.RelMapFile zeroinitializer, align 4
@.str.1 = private unnamed_addr constant [12 x i8] c"relmapper.c\00", align 1
@pending_shared_updates = internal global %struct.RelMapFile zeroinitializer, align 4
@pending_local_updates = internal global %struct.RelMapFile zeroinitializer, align 4
@.str.6 = private unnamed_addr constant [38 x i8] c"parallel worker has existing mappings\00", align 1
@__func__.RestoreRelationMap = private unnamed_addr constant [19 x i8] c"RestoreRelationMap\00", align 1

; Function Attrs: nounwind uwtable
define dso_local void @RestoreRelationMap(ptr noundef %0) #0 {
  %2 = alloca ptr, align 8
  %3 = alloca ptr, align 8
  store ptr %0, ptr %2, align 8
  call void @llvm.lifetime.start.p0(i64 8, ptr %3) #8
  %4 = load i32, ptr getelementptr inbounds nuw (%struct.RelMapFile, ptr @active_shared_updates, i32 0, i32 1), align 4
  %5 = icmp ne i32 %4, 0
  br i1 %5, label %15, label %6

6:                                                ; preds = %1
  %7 = load i32, ptr getelementptr inbounds nuw (%struct.RelMapFile, ptr @active_local_updates, i32 0, i32 1), align 4
  %8 = icmp ne i32 %7, 0
  br i1 %8, label %15, label %9

9:                                                ; preds = %6
  %10 = load i32, ptr getelementptr inbounds nuw (%struct.RelMapFile, ptr @pending_shared_updates, i32 0, i32 1), align 4
  %11 = icmp ne i32 %10, 0
  br i1 %11, label %15, label %12

12:                                               ; preds = %9
  %13 = load i32, ptr getelementptr inbounds nuw (%struct.RelMapFile, ptr @pending_local_updates, i32 0, i32 1), align 4
  %14 = icmp ne i32 %13, 0
  br i1 %14, label %15, label %26

15:                                               ; preds = %12, %9, %6, %1
  br label %16

16:                                               ; preds = %15
  br i1 true, label %17, label %19

17:                                               ; preds = %16
  %18 = call zeroext i1 @errstart_cold(i32 noundef 21, ptr noundef null) #9
  br i1 %18, label %21, label %23

19:                                               ; preds = %16
  %20 = call zeroext i1 @errstart(i32 noundef 21, ptr noundef null)
  br i1 %20, label %21, label %23

21:                                               ; preds = %19, %17
  %22 = call i32 (ptr, ...) @errmsg_internal(ptr noundef @.str.6)
  call void @errfinish(ptr noundef @.str.1, i32 noundef 749, ptr noundef @__func__.RestoreRelationMap)
  br label %23

23:                                               ; preds = %21, %19, %17
  unreachable

24:                                               ; No predecessors!
  br label %25

25:                                               ; preds = %24
  br label %26

26:                                               ; preds = %25, %12
  %27 = load ptr, ptr %2, align 8
  store ptr %27, ptr %3, align 8
  %28 = load ptr, ptr %3, align 8
  %29 = getelementptr inbounds nuw %struct.SerializedActiveRelMaps, ptr %28, i32 0, i32 0
  call void @llvm.memcpy.p0.p0.i64(ptr align 4 @active_shared_updates, ptr align 4 %29, i64 524, i1 false)
  %30 = load ptr, ptr %3, align 8
  %31 = getelementptr inbounds nuw %struct.SerializedActiveRelMaps, ptr %30, i32 0, i32 1
  call void @llvm.memcpy.p0.p0.i64(ptr align 4 @active_local_updates, ptr align 4 %31, i64 524, i1 false)
  call void @llvm.lifetime.end.p0(i64 8, ptr %3) #8
  ret void
}