; Function Attrs: nounwind uwtable
define dso_local void @RestoreRelationMap(ptr noundef readonly captures(none) %0) local_unnamed_addr #2 {
  %2 = load i32, ptr getelementptr inbounds nuw (i8, ptr @active_shared_updates, i64 4), align 4
  %3 = icmp ne i32 %2, 0
  %4 = load i32, ptr getelementptr inbounds nuw (i8, ptr @active_local_updates, i64 4), align 4
  %5 = icmp ne i32 %4, 0
  %or.cond = select i1 %3, i1 true, i1 %5
  %6 = load i32, ptr getelementptr inbounds nuw (i8, ptr @pending_shared_updates, i64 4), align 4
  %7 = icmp ne i32 %6, 0
  %or.cond3 = select i1 %or.cond, i1 true, i1 %7
  %8 = load i32, ptr getelementptr inbounds nuw (i8, ptr @pending_local_updates, i64 4), align 4
  %9 = icmp ne i32 %8, 0
  %or.cond5 = select i1 %or.cond3, i1 true, i1 %9
  br i1 %or.cond5, label %10, label %13

10:                                               ; preds = %1
  %11 = tail call zeroext i1 @errstart_cold(i32 noundef 21, ptr noundef null) #13
  tail call void @llvm.assume(i1 %11)
  %12 = tail call i32 (ptr, ...) @errmsg_internal(ptr noundef nonnull @.str.6) #12
  tail call void @errfinish(ptr noundef nonnull @.str.1, i32 noundef 749, ptr noundef nonnull @__func__.RestoreRelationMap) #12
  unreachable

13:                                               ; preds = %1
  tail call void @llvm.memcpy.p0.p0.i64(ptr noundef nonnull align 4 dereferenceable(524) @active_shared_updates, ptr noundef nonnull align 4 dereferenceable(524) %0, i64 524, i1 false)
  %14 = getelementptr inbounds nuw i8, ptr %0, i64 524
  tail call void @llvm.memcpy.p0.p0.i64(ptr noundef nonnull align 4 dereferenceable(524) @active_local_updates, ptr noundef nonnull align 4 dereferenceable(524) %14, i64 524, i1 false)
  ret void
}